target datalayout = "e-m:e-p270:32:32-p271:32:32-p272:64:64-i64:64-i128:128-f80:128-n8:16:32:64-S128"
target triple = "x86_64-pc-linux-gnu"

%struct.AVFilterContext = type { ptr, ptr, ptr, ptr, ptr, i32, ptr, ptr, i32, ptr, ptr, i32, i32, ptr, ptr, ptr, ptr, i32, ptr, i32, i32 }
%struct.FsyncContext = type { ptr, ptr, ptr, ptr, ptr, ptr, ptr, i64, i64, i32, i32 }
%struct.AVRational = type { i32, i32 }
%struct.AVChannelLayout = type { i32, i32, %union.anon.1, ptr }
%union.anon.1 = type { i64 }
%struct.AVFilterLink = type { ptr, ptr, ptr, ptr, i32, i32, i32, i32, %struct.AVRational, i32, i32, i32, %struct.AVChannelLayout, %struct.AVRational, ptr, i32, %struct.AVFilterFormatsConfig, %struct.AVFilterFormatsConfig }
%struct.AVFilterFormatsConfig = type { ptr, ptr, ptr, ptr, ptr }
%struct.FilterLink = type { %struct.AVFilterLink, ptr, i64, i64, i32, i32, i64, i64, i64, i64, %struct.AVRational, ptr }

@.str.3 = private unnamed_addr constant [14 x i8] c"%ld %ld %d/%d\00", align 1
@.str.4 = private unnamed_addr constant [36 x i8] c"Unexpected format found (%i of 4).\0A\00", align 1

; Function Attrs: inlinehint nounwind uwtable
define internal i64 @av_make_q(i32 noundef %0, i32 noundef %1) #3 {
  %3 = alloca %struct.AVRational, align 4
  %4 = alloca i32, align 4
  %5 = alloca i32, align 4
  store i32 %0, ptr %4, align 4, !tbaa !30
  store i32 %1, ptr %5, align 4, !tbaa !30
  %6 = getelementptr inbounds nuw %struct.AVRational, ptr %3, i32 0, i32 0
  %7 = load i32, ptr %4, align 4, !tbaa !30
  store i32 %7, ptr %6, align 4, !tbaa !62
  %8 = getelementptr inbounds nuw %struct.AVRational, ptr %3, i32 0, i32 1
  %9 = load i32, ptr %5, align 4, !tbaa !30
  store i32 %9, ptr %8, align 4, !tbaa !63
  %10 = load i64, ptr %3, align 4
  ret i64 %10
}

; Function Attrs: inlinehint nounwind uwtable
define internal void @ff_outlink_set_status(ptr noundef %0, i32 noundef %1, i64 noundef %2) #3 {
  %4 = alloca ptr, align 8
  %5 = alloca i32, align 4
  %6 = alloca i64, align 8
  store ptr %0, ptr %4, align 8, !tbaa !35
  store i32 %1, ptr %5, align 4, !tbaa !30
  store i64 %2, ptr %6, align 8, !tbaa !54
  %7 = load ptr, ptr %4, align 8, !tbaa !35
  %8 = load i32, ptr %5, align 4, !tbaa !30
  %9 = load i64, ptr %6, align 8, !tbaa !54
  call void @ff_avfilter_link_set_in_status(ptr noundef %7, i32 noundef %8, i64 noundef %9)
  ret void
}

; Function Attrs: inlinehint nounwind uwtable
define internal ptr @ff_filter_link(ptr noundef %0) #3 {
  %2 = alloca ptr, align 8
  store ptr %0, ptr %2, align 8, !tbaa !35
  %3 = load ptr, ptr %2, align 8, !tbaa !35
  ret ptr %3
}

; Function Attrs: nounwind uwtable
define internal i32 @fsync_config_props(ptr noundef %0) #1 {
  %2 = alloca i32, align 4
  %3 = alloca ptr, align 8
  %4 = alloca ptr, align 8
  %5 = alloca ptr, align 8
  %6 = alloca ptr, align 8
  %7 = alloca i32, align 4
  %8 = alloca i32, align 4
  %9 = alloca %struct.AVRational, align 4
  %10 = alloca %struct.AVRational, align 4
  store ptr %0, ptr %3, align 8, !tbaa !35
  call void @llvm.lifetime.start.p0(i64 8, ptr %4) #6
  %11 = load ptr, ptr %3, align 8, !tbaa !35
  %12 = getelementptr inbounds nuw %struct.AVFilterLink, ptr %11, i32 0, i32 0
  %13 = load ptr, ptr %12, align 8, !tbaa !55
  store ptr %13, ptr %4, align 8, !tbaa !4
  call void @llvm.lifetime.start.p0(i64 8, ptr %5) #6
  %14 = load ptr, ptr %3, align 8, !tbaa !35
  %15 = call ptr @ff_filter_link(ptr noundef %14)
  store ptr %15, ptr %5, align 8, !tbaa !60
  call void @llvm.lifetime.start.p0(i64 8, ptr %6) #6
  %16 = load ptr, ptr %4, align 8, !tbaa !4
  %17 = getelementptr inbounds nuw %struct.AVFilterContext, ptr %16, i32 0, i32 9
  %18 = load ptr, ptr %17, align 8, !tbaa !9
  store ptr %18, ptr %6, align 8, !tbaa !22
  call void @llvm.lifetime.start.p0(i64 4, ptr %7) #6
  %19 = load ptr, ptr %6, align 8, !tbaa !22
  %20 = getelementptr inbounds nuw %struct.FsyncContext, ptr %19, i32 0, i32 5
  %21 = load ptr, ptr %20, align 8, !tbaa !31
  %22 = load ptr, ptr %6, align 8, !tbaa !22
  %23 = getelementptr inbounds nuw %struct.FsyncContext, ptr %22, i32 0, i32 7
  %24 = load ptr, ptr %6, align 8, !tbaa !22
  %25 = getelementptr inbounds nuw %struct.FsyncContext, ptr %24, i32 0, i32 8
  %26 = load ptr, ptr %6, align 8, !tbaa !22
  %27 = getelementptr inbounds nuw %struct.FsyncContext, ptr %26, i32 0, i32 9
  %28 = load ptr, ptr %6, align 8, !tbaa !22
  %29 = getelementptr inbounds nuw %struct.FsyncContext, ptr %28, i32 0, i32 10
  %30 = call i32 (ptr, ptr, ...) @av_sscanf(ptr noundef %21, ptr noundef @.str.3, ptr noundef %23, ptr noundef %25, ptr noundef %27, ptr noundef %29)
  store i32 %30, ptr %7, align 4, !tbaa !30
  %31 = load i32, ptr %7, align 4, !tbaa !30
  %32 = icmp ne i32 %31, 4
  br i1 %32, label %33, label %37

33:                                               ; preds = %1
  %34 = load ptr, ptr %4, align 8, !tbaa !4
  %35 = load i32, ptr %7, align 4, !tbaa !30
  call void (ptr, i32, ptr, ...) @av_log(ptr noundef %34, i32 noundef 16, ptr noundef @.str.4, i32 noundef %35)
  %36 = load ptr, ptr %3, align 8, !tbaa !35
  call void @ff_outlink_set_status(ptr noundef %36, i32 noundef -1094995529, i64 noundef -9223372036854775808)
  store i32 -1094995529, ptr %2, align 4
  store i32 1, ptr %8, align 4
  br label %50

37:                                               ; preds = %1
  %38 = load ptr, ptr %5, align 8, !tbaa !60
  %39 = getelementptr inbounds nuw %struct.FilterLink, ptr %38, i32 0, i32 10
  call void @llvm.lifetime.start.p0(i64 8, ptr %9) #6
  %40 = call i64 @av_make_q(i32 noundef 1, i32 noundef 0)
  store i64 %40, ptr %9, align 4
  call void @llvm.memcpy.p0.p0.i64(ptr align 8 %39, ptr align 4 %9, i64 8, i1 false), !tbaa.struct !53
  call void @llvm.lifetime.end.p0(i64 8, ptr %9) #6
  %41 = load ptr, ptr %3, align 8, !tbaa !35
  %42 = getelementptr inbounds nuw %struct.AVFilterLink, ptr %41, i32 0, i32 13
  call void @llvm.lifetime.start.p0(i64 8, ptr %10) #6
  %43 = load ptr, ptr %6, align 8, !tbaa !22
  %44 = getelementptr inbounds nuw %struct.FsyncContext, ptr %43, i32 0, i32 9
  %45 = load i32, ptr %44, align 8, !tbaa !51
  %46 = load ptr, ptr %6, align 8, !tbaa !22
  %47 = getelementptr inbounds nuw %struct.FsyncContext, ptr %46, i32 0, i32 10
  %48 = load i32, ptr %47, align 4, !tbaa !52
  %49 = call i64 @av_make_q(i32 noundef %45, i32 noundef %48)
  store i64 %49, ptr %10, align 4
  call void @llvm.memcpy.p0.p0.i64(ptr align 8 %42, ptr align 4 %10, i64 8, i1 false), !tbaa.struct !53
  call void @llvm.lifetime.end.p0(i64 8, ptr %10) #6
  store i32 0, ptr %2, align 4
  store i32 1, ptr %8, align 4
  br label %50

50:                                               ; preds = %37, %33
  call void @llvm.lifetime.end.p0(i64 4, ptr %7) #6
  call void @llvm.lifetime.end.p0(i64 8, ptr %6) #6
  call void @llvm.lifetime.end.p0(i64 8, ptr %5) #6
  call void @llvm.lifetime.end.p0(i64 8, ptr %4) #6
  %51 = load i32, ptr %2, align 4
  ret i32 %51
}