; Function Attrs: nounwind uwtable
define internal range(i32 -1094995529, 1) i32 @fsync_config_props(ptr noundef %0) #1 {
  %2 = load ptr, ptr %0, align 8, !tbaa !52
  %3 = getelementptr inbounds nuw i8, ptr %2, i64 72
  %4 = load ptr, ptr %3, align 8, !tbaa !4
  %5 = getelementptr inbounds nuw i8, ptr %4, i64 40
  %6 = load ptr, ptr %5, align 8, !tbaa !26
  %7 = getelementptr inbounds nuw i8, ptr %4, i64 56
  %8 = getelementptr inbounds nuw i8, ptr %4, i64 64
  %9 = getelementptr inbounds nuw i8, ptr %4, i64 72
  %10 = getelementptr inbounds nuw i8, ptr %4, i64 76
  %11 = tail call i32 (ptr, ptr, ...) @av_sscanf(ptr noundef %6, ptr noundef nonnull @.str.3, ptr noundef nonnull %7, ptr noundef nonnull %8, ptr noundef nonnull %9, ptr noundef nonnull %10) #5
  %.not = icmp eq i32 %11, 4
  br i1 %.not, label %13, label %12

12:                                               ; preds = %1
  tail call void (ptr, i32, ptr, ...) @av_log(ptr noundef nonnull %2, i32 noundef 16, ptr noundef nonnull @.str.4, i32 noundef %11) #5
  tail call void @ff_avfilter_link_set_in_status(ptr noundef nonnull %0, i32 noundef -1094995529, i64 noundef -9223372036854775808) #5
  br label %17

13:                                               ; preds = %1
  %14 = getelementptr inbounds nuw i8, ptr %0, i64 264
  store i64 1, ptr %14, align 8
  %15 = getelementptr inbounds nuw i8, ptr %0, i64 96
  %16 = load i64, ptr %9, align 8
  store i64 %16, ptr %15, align 8
  br label %17

17:                                               ; preds = %13, %12
  %.0 = phi i32 [ -1094995529, %12 ], [ 0, %13 ]
  ret i32 %.0
}